
_Move_Delay:

;projet_gestion_appels_infirmiers.c,30 :: 		void Move_Delay() {                  // Function used for timing
;projet_gestion_appels_infirmiers.c,31 :: 		Delay_ms(1000);
	MOVLW      21
	MOVWF      R11+0
	MOVLW      75
	MOVWF      R12+0
	MOVLW      190
	MOVWF      R13+0
L_Move_Delay0:
	DECFSZ     R13+0, 1
	GOTO       L_Move_Delay0
	DECFSZ     R12+0, 1
	GOTO       L_Move_Delay0
	DECFSZ     R11+0, 1
	GOTO       L_Move_Delay0
	NOP
;projet_gestion_appels_infirmiers.c,32 :: 		}
L_end_Move_Delay:
	RETURN
; end of _Move_Delay

_interrupt:
	MOVWF      R15+0
	SWAPF      STATUS+0, 0
	CLRF       STATUS+0
	MOVWF      ___saveSTATUS+0
	MOVF       PCLATH+0, 0
	MOVWF      ___savePCLATH+0
	CLRF       PCLATH+0

;projet_gestion_appels_infirmiers.c,36 :: 		void interrupt ()
;projet_gestion_appels_infirmiers.c,38 :: 		if(INTCON.INTF == 1 )
	BTFSS      INTCON+0, 1
	GOTO       L_interrupt1
;projet_gestion_appels_infirmiers.c,40 :: 		flag = 1;              // set flag
	MOVLW      1
	MOVWF      _flag+0
;projet_gestion_appels_infirmiers.c,41 :: 		INTCON.INTF = 0;       // Clear Interrupt Flag
	BCF        INTCON+0, 1
;projet_gestion_appels_infirmiers.c,42 :: 		}
L_interrupt1:
;projet_gestion_appels_infirmiers.c,44 :: 		INTCON.INTE=1;
	BSF        INTCON+0, 4
;projet_gestion_appels_infirmiers.c,45 :: 		}
L_end_interrupt:
L__interrupt41:
	MOVF       ___savePCLATH+0, 0
	MOVWF      PCLATH+0
	SWAPF      ___saveSTATUS+0, 0
	MOVWF      STATUS+0
	SWAPF      R15+0, 1
	SWAPF      R15+0, 0
	RETFIE
; end of _interrupt

_main:

;projet_gestion_appels_infirmiers.c,46 :: 		void main() { UART1_Init(9615);
	MOVLW      103
	MOVWF      SPBRG+0
	BSF        TXSTA+0, 2
	CALL       _UART1_Init+0
;projet_gestion_appels_infirmiers.c,49 :: 		trisa=0xFF;
	MOVLW      255
	MOVWF      TRISA+0
;projet_gestion_appels_infirmiers.c,50 :: 		porta=0x00;
	CLRF       PORTA+0
;projet_gestion_appels_infirmiers.c,51 :: 		trise=0x07;
	MOVLW      7
	MOVWF      TRISE+0
;projet_gestion_appels_infirmiers.c,52 :: 		porte=0x00;
	CLRF       PORTE+0
;projet_gestion_appels_infirmiers.c,53 :: 		trisb = 0x01;
	MOVLW      1
	MOVWF      TRISB+0
;projet_gestion_appels_infirmiers.c,54 :: 		portb=0x00;            // PORTS B EN SORTIE
	CLRF       PORTB+0
;projet_gestion_appels_infirmiers.c,55 :: 		trisd=0x00;
	CLRF       TRISD+0
;projet_gestion_appels_infirmiers.c,57 :: 		portd=0x00;              // PORTS D EN SORTIE
	CLRF       PORTD+0
;projet_gestion_appels_infirmiers.c,58 :: 		trisc=0x8F;              // PORTS (0 à 3) EN TANT QUE DES ENTREES DES BOUTTONS
	MOVLW      143
	MOVWF      TRISC+0
;projet_gestion_appels_infirmiers.c,59 :: 		portc=0x00;
	CLRF       PORTC+0
;projet_gestion_appels_infirmiers.c,64 :: 		a=0x00;
	CLRF       _a+0
	CLRF       _a+1
;projet_gestion_appels_infirmiers.c,65 :: 		b=0x00;
	CLRF       _b+0
	CLRF       _b+1
;projet_gestion_appels_infirmiers.c,66 :: 		x=0x00;
	CLRF       _x+0
	CLRF       _x+1
;projet_gestion_appels_infirmiers.c,67 :: 		y=0x00;
	CLRF       _y+0
	CLRF       _y+1
;projet_gestion_appels_infirmiers.c,68 :: 		t=0x00;
	CLRF       _t+0
	CLRF       _t+1
;projet_gestion_appels_infirmiers.c,69 :: 		heart=0x00;
	CLRF       _heart+0
	CLRF       _heart+1
;projet_gestion_appels_infirmiers.c,70 :: 		heartt=0x00;
	CLRF       _heartt+0
	CLRF       _heartt+1
;projet_gestion_appels_infirmiers.c,71 :: 		hearttt=0x00;
	CLRF       _hearttt+0
	CLRF       _hearttt+1
;projet_gestion_appels_infirmiers.c,72 :: 		heartttt=0x00;
	CLRF       _heartttt+0
	CLRF       _heartttt+1
;projet_gestion_appels_infirmiers.c,73 :: 		rate=0x00;
	CLRF       _rate+0
	CLRF       _rate+1
;projet_gestion_appels_infirmiers.c,75 :: 		ADC_Init();
	CALL       _ADC_Init+0
;projet_gestion_appels_infirmiers.c,77 :: 		Lcd_Init();                          // INITIALISATION DE LCD
	CALL       _Lcd_Init+0
;projet_gestion_appels_infirmiers.c,78 :: 		Lcd_Cmd(_LCD_CLEAR);
	MOVLW      1
	MOVWF      FARG_Lcd_Cmd_out_char+0
	CALL       _Lcd_Cmd+0
;projet_gestion_appels_infirmiers.c,79 :: 		Lcd_Cmd(_LCD_CURSOR_OFF);
	MOVLW      12
	MOVWF      FARG_Lcd_Cmd_out_char+0
	CALL       _Lcd_Cmd+0
;projet_gestion_appels_infirmiers.c,82 :: 		EEPROM_Write(0x0F,0x52);               // Write some data at address 15
	MOVLW      15
	MOVWF      FARG_EEPROM_Write_Address+0
	MOVLW      82
	MOVWF      FARG_EEPROM_Write_data_+0
	CALL       _EEPROM_Write+0
;projet_gestion_appels_infirmiers.c,83 :: 		EEPROM_Write(0x1F,0x3E);               // Write some data at address 31
	MOVLW      31
	MOVWF      FARG_EEPROM_Write_Address+0
	MOVLW      62
	MOVWF      FARG_EEPROM_Write_data_+0
	CALL       _EEPROM_Write+0
;projet_gestion_appels_infirmiers.c,85 :: 		OPTION_REG.INTEDG=1;
	BSF        OPTION_REG+0, 6
;projet_gestion_appels_infirmiers.c,86 :: 		INTCON.GIE=1;
	BSF        INTCON+0, 7
;projet_gestion_appels_infirmiers.c,87 :: 		INTCON.INTE=1;
	BSF        INTCON+0, 4
;projet_gestion_appels_infirmiers.c,88 :: 		INTCON.RBIF=1;
	BSF        INTCON+0, 0
;projet_gestion_appels_infirmiers.c,91 :: 		INTCON.INTF=0;
	BCF        INTCON+0, 1
;projet_gestion_appels_infirmiers.c,94 :: 		for(;;)
L_main2:
;projet_gestion_appels_infirmiers.c,96 :: 		MAXI=EEPROM_Read(0x0F);
	MOVLW      15
	MOVWF      FARG_EEPROM_Read_Address+0
	CALL       _EEPROM_Read+0
	MOVF       R0+0, 0
	MOVWF      _MAXI+0
	CLRF       _MAXI+1
;projet_gestion_appels_infirmiers.c,97 :: 		MINI=EEPROM_Read(0x1F);
	MOVLW      31
	MOVWF      FARG_EEPROM_Read_Address+0
	CALL       _EEPROM_Read+0
	MOVF       R0+0, 0
	MOVWF      _MINI+0
	CLRF       _MINI+1
;projet_gestion_appels_infirmiers.c,99 :: 		a=ADC_Read(0);               //STOCKER LE SIGNAL ANALOGIQUE RECU LORS DE RA0 SOUS FORME NUMERIQUE DANS a
	CLRF       FARG_ADC_Read_channel+0
	CALL       _ADC_Read+0
	MOVF       R0+0, 0
	MOVWF      _a+0
	MOVF       R0+1, 0
	MOVWF      _a+1
;projet_gestion_appels_infirmiers.c,100 :: 		b=ADC_Read(1);               //STOCKER LE SIGNAL ANALOGIQUE RECU LORS DE RA1 SOUS FORME NUMERIQUE DANS b
	MOVLW      1
	MOVWF      FARG_ADC_Read_channel+0
	CALL       _ADC_Read+0
	MOVF       R0+0, 0
	MOVWF      _b+0
	MOVF       R0+1, 0
	MOVWF      _b+1
;projet_gestion_appels_infirmiers.c,101 :: 		x=ADC_Read(2);               //STOCKER LE SIGNAL ANALOGIQUE RECU LORS DE RA2 SOUS FORME NUMERIQUE DANS c
	MOVLW      2
	MOVWF      FARG_ADC_Read_channel+0
	CALL       _ADC_Read+0
	MOVF       R0+0, 0
	MOVWF      _x+0
	MOVF       R0+1, 0
	MOVWF      _x+1
;projet_gestion_appels_infirmiers.c,102 :: 		y=ADC_Read(3);               //STOCKER LE SIGNAL ANALOGIQUE RECU LORS DE RA3 SOUS FORME NUMERIQUE DANS d
	MOVLW      3
	MOVWF      FARG_ADC_Read_channel+0
	CALL       _ADC_Read+0
	MOVF       R0+0, 0
	MOVWF      _y+0
	MOVF       R0+1, 0
	MOVWF      _y+1
;projet_gestion_appels_infirmiers.c,103 :: 		heart=ADC_Read(4);           //STOCKER LE SIGNAL ANALOGIQUE RECU LORS DE RA5 SOUS FORME NUMERIQUE DANS heart
	MOVLW      4
	MOVWF      FARG_ADC_Read_channel+0
	CALL       _ADC_Read+0
	MOVF       R0+0, 0
	MOVWF      _heart+0
	MOVF       R0+1, 0
	MOVWF      _heart+1
;projet_gestion_appels_infirmiers.c,104 :: 		heartt=ADC_Read(5);          //STOCKER LE SIGNAL ANALOGIQUE RECU LORS DE RE0 SOUS FORME NUMERIQUE DANS heartt
	MOVLW      5
	MOVWF      FARG_ADC_Read_channel+0
	CALL       _ADC_Read+0
	MOVF       R0+0, 0
	MOVWF      _heartt+0
	MOVF       R0+1, 0
	MOVWF      _heartt+1
;projet_gestion_appels_infirmiers.c,105 :: 		hearttt=ADC_Read(6);         //STOCKER LE SIGNAL ANALOGIQUE RECU LORS DE RE1 SOUS FORME NUMERIQUE DANS hearttt
	MOVLW      6
	MOVWF      FARG_ADC_Read_channel+0
	CALL       _ADC_Read+0
	MOVF       R0+0, 0
	MOVWF      _hearttt+0
	MOVF       R0+1, 0
	MOVWF      _hearttt+1
;projet_gestion_appels_infirmiers.c,106 :: 		heartttt=ADC_Read(7);        //STOCKER LE SIGNAL ANALOGIQUE RECU LORS DE RE2 SOUS FORME NUMERIQUE DANS heartttt
	MOVLW      7
	MOVWF      FARG_ADC_Read_channel+0
	CALL       _ADC_Read+0
	MOVF       R0+0, 0
	MOVWF      _heartttt+0
	MOVF       R0+1, 0
	MOVWF      _heartttt+1
;projet_gestion_appels_infirmiers.c,107 :: 		rate=0b100110011;
	MOVLW      51
	MOVWF      _rate+0
	MOVLW      1
	MOVWF      _rate+1
;projet_gestion_appels_infirmiers.c,109 :: 		if(INTCON.T0IF == 1)
	BTFSS      INTCON+0, 2
	GOTO       L_main5
;projet_gestion_appels_infirmiers.c,112 :: 		INTCON.T0IF = 0;
	BCF        INTCON+0, 2
;projet_gestion_appels_infirmiers.c,113 :: 		}
L_main5:
;projet_gestion_appels_infirmiers.c,118 :: 		if(porta.ra5==0 && portc.rc0 == 0 && portc.rc1 == 0 && portc.rc2 == 0 && portc.rc3 == 0 && a<MAXI && a>MINI && b<MAXI && b>MINI && x<MAXI && x>MINI && y<MAXI && y>MINI && heart>rate && heartt>rate && hearttt>rate && heartttt>rate)
	BTFSC      PORTA+0, 5
	GOTO       L_main8
	BTFSC      PORTC+0, 0
	GOTO       L_main8
	BTFSC      PORTC+0, 1
	GOTO       L_main8
	BTFSC      PORTC+0, 2
	GOTO       L_main8
	BTFSC      PORTC+0, 3
	GOTO       L_main8
	MOVF       _MAXI+1, 0
	SUBWF      _a+1, 0
	BTFSS      STATUS+0, 2
	GOTO       L__main43
	MOVF       _MAXI+0, 0
	SUBWF      _a+0, 0
L__main43:
	BTFSC      STATUS+0, 0
	GOTO       L_main8
	MOVF       _a+1, 0
	SUBWF      _MINI+1, 0
	BTFSS      STATUS+0, 2
	GOTO       L__main44
	MOVF       _a+0, 0
	SUBWF      _MINI+0, 0
L__main44:
	BTFSC      STATUS+0, 0
	GOTO       L_main8
	MOVF       _MAXI+1, 0
	SUBWF      _b+1, 0
	BTFSS      STATUS+0, 2
	GOTO       L__main45
	MOVF       _MAXI+0, 0
	SUBWF      _b+0, 0
L__main45:
	BTFSC      STATUS+0, 0
	GOTO       L_main8
	MOVF       _b+1, 0
	SUBWF      _MINI+1, 0
	BTFSS      STATUS+0, 2
	GOTO       L__main46
	MOVF       _b+0, 0
	SUBWF      _MINI+0, 0
L__main46:
	BTFSC      STATUS+0, 0
	GOTO       L_main8
	MOVF       _MAXI+1, 0
	SUBWF      _x+1, 0
	BTFSS      STATUS+0, 2
	GOTO       L__main47
	MOVF       _MAXI+0, 0
	SUBWF      _x+0, 0
L__main47:
	BTFSC      STATUS+0, 0
	GOTO       L_main8
	MOVF       _x+1, 0
	SUBWF      _MINI+1, 0
	BTFSS      STATUS+0, 2
	GOTO       L__main48
	MOVF       _x+0, 0
	SUBWF      _MINI+0, 0
L__main48:
	BTFSC      STATUS+0, 0
	GOTO       L_main8
	MOVF       _MAXI+1, 0
	SUBWF      _y+1, 0
	BTFSS      STATUS+0, 2
	GOTO       L__main49
	MOVF       _MAXI+0, 0
	SUBWF      _y+0, 0
L__main49:
	BTFSC      STATUS+0, 0
	GOTO       L_main8
	MOVF       _y+1, 0
	SUBWF      _MINI+1, 0
	BTFSS      STATUS+0, 2
	GOTO       L__main50
	MOVF       _y+0, 0
	SUBWF      _MINI+0, 0
L__main50:
	BTFSC      STATUS+0, 0
	GOTO       L_main8
	MOVF       _heart+1, 0
	SUBWF      _rate+1, 0
	BTFSS      STATUS+0, 2
	GOTO       L__main51
	MOVF       _heart+0, 0
	SUBWF      _rate+0, 0
L__main51:
	BTFSC      STATUS+0, 0
	GOTO       L_main8
	MOVF       _heartt+1, 0
	SUBWF      _rate+1, 0
	BTFSS      STATUS+0, 2
	GOTO       L__main52
	MOVF       _heartt+0, 0
	SUBWF      _rate+0, 0
L__main52:
	BTFSC      STATUS+0, 0
	GOTO       L_main8
	MOVF       _hearttt+1, 0
	SUBWF      _rate+1, 0
	BTFSS      STATUS+0, 2
	GOTO       L__main53
	MOVF       _hearttt+0, 0
	SUBWF      _rate+0, 0
L__main53:
	BTFSC      STATUS+0, 0
	GOTO       L_main8
	MOVF       _heartttt+1, 0
	SUBWF      _rate+1, 0
	BTFSS      STATUS+0, 2
	GOTO       L__main54
	MOVF       _heartttt+0, 0
	SUBWF      _rate+0, 0
L__main54:
	BTFSC      STATUS+0, 0
	GOTO       L_main8
L__main38:
;projet_gestion_appels_infirmiers.c,121 :: 		Lcd_Out(1, 3, "ETAT NORMALE");
	MOVLW      1
	MOVWF      FARG_Lcd_Out_row+0
	MOVLW      3
	MOVWF      FARG_Lcd_Out_column+0
	MOVLW      ?lstr1_projet_gestion_appels_infirmiers+0
	MOVWF      FARG_Lcd_Out_text+0
	CALL       _Lcd_Out+0
;projet_gestion_appels_infirmiers.c,128 :: 		}
	GOTO       L_main9
L_main8:
;projet_gestion_appels_infirmiers.c,134 :: 		else if(portc.rc0 == 1 && portc.rc1 == 0 && portc.rc2 == 0 && portc.rc3 == 0)
	BTFSS      PORTC+0, 0
	GOTO       L_main12
	BTFSC      PORTC+0, 1
	GOTO       L_main12
	BTFSC      PORTC+0, 2
	GOTO       L_main12
	BTFSC      PORTC+0, 3
	GOTO       L_main12
L__main37:
;projet_gestion_appels_infirmiers.c,136 :: 		Lcd_Cmd(_LCD_CLEAR);
	MOVLW      1
	MOVWF      FARG_Lcd_Cmd_out_char+0
	CALL       _Lcd_Cmd+0
;projet_gestion_appels_infirmiers.c,137 :: 		Lcd_Cmd(_LCD_CURSOR_OFF);
	MOVLW      12
	MOVWF      FARG_Lcd_Cmd_out_char+0
	CALL       _Lcd_Cmd+0
;projet_gestion_appels_infirmiers.c,138 :: 		Lcd_Out(1, 4, "APPEL DE LA ");
	MOVLW      1
	MOVWF      FARG_Lcd_Out_row+0
	MOVLW      4
	MOVWF      FARG_Lcd_Out_column+0
	MOVLW      ?lstr2_projet_gestion_appels_infirmiers+0
	MOVWF      FARG_Lcd_Out_text+0
	CALL       _Lcd_Out+0
;projet_gestion_appels_infirmiers.c,139 :: 		Lcd_Out(2, 5, "CHAMBRE 1");
	MOVLW      2
	MOVWF      FARG_Lcd_Out_row+0
	MOVLW      5
	MOVWF      FARG_Lcd_Out_column+0
	MOVLW      ?lstr3_projet_gestion_appels_infirmiers+0
	MOVWF      FARG_Lcd_Out_text+0
	CALL       _Lcd_Out+0
;projet_gestion_appels_infirmiers.c,140 :: 		buzzer=1;
	BSF        PORTC+0, 4
;projet_gestion_appels_infirmiers.c,141 :: 		portd=0xFF;
	MOVLW      255
	MOVWF      PORTD+0
;projet_gestion_appels_infirmiers.c,142 :: 		Move_Delay() ;
	CALL       _Move_Delay+0
;projet_gestion_appels_infirmiers.c,143 :: 		portd=0x00;
	CLRF       PORTD+0
;projet_gestion_appels_infirmiers.c,144 :: 		buzzer=0;
	BCF        PORTC+0, 4
;projet_gestion_appels_infirmiers.c,145 :: 		Lcd_Cmd(_LCD_CLEAR);
	MOVLW      1
	MOVWF      FARG_Lcd_Cmd_out_char+0
	CALL       _Lcd_Cmd+0
;projet_gestion_appels_infirmiers.c,146 :: 		Lcd_Cmd(_LCD_CURSOR_OFF);
	MOVLW      12
	MOVWF      FARG_Lcd_Cmd_out_char+0
	CALL       _Lcd_Cmd+0
;projet_gestion_appels_infirmiers.c,148 :: 		}
	GOTO       L_main13
L_main12:
;projet_gestion_appels_infirmiers.c,153 :: 		else if(portc.rc1 == 1 && portc.rc0 == 0 && portc.rc2 == 0 && portc.rc3 == 0)
	BTFSS      PORTC+0, 1
	GOTO       L_main16
	BTFSC      PORTC+0, 0
	GOTO       L_main16
	BTFSC      PORTC+0, 2
	GOTO       L_main16
	BTFSC      PORTC+0, 3
	GOTO       L_main16
L__main36:
;projet_gestion_appels_infirmiers.c,155 :: 		Lcd_Cmd(_LCD_CLEAR);
	MOVLW      1
	MOVWF      FARG_Lcd_Cmd_out_char+0
	CALL       _Lcd_Cmd+0
;projet_gestion_appels_infirmiers.c,156 :: 		Lcd_Cmd(_LCD_CURSOR_OFF);
	MOVLW      12
	MOVWF      FARG_Lcd_Cmd_out_char+0
	CALL       _Lcd_Cmd+0
;projet_gestion_appels_infirmiers.c,157 :: 		Lcd_Out(1, 4, "APPEL DE LA ");
	MOVLW      1
	MOVWF      FARG_Lcd_Out_row+0
	MOVLW      4
	MOVWF      FARG_Lcd_Out_column+0
	MOVLW      ?lstr4_projet_gestion_appels_infirmiers+0
	MOVWF      FARG_Lcd_Out_text+0
	CALL       _Lcd_Out+0
;projet_gestion_appels_infirmiers.c,158 :: 		Lcd_Out(2, 5, "CHAMBRE 2");
	MOVLW      2
	MOVWF      FARG_Lcd_Out_row+0
	MOVLW      5
	MOVWF      FARG_Lcd_Out_column+0
	MOVLW      ?lstr5_projet_gestion_appels_infirmiers+0
	MOVWF      FARG_Lcd_Out_text+0
	CALL       _Lcd_Out+0
;projet_gestion_appels_infirmiers.c,159 :: 		buzzer = 1;
	BSF        PORTC+0, 4
;projet_gestion_appels_infirmiers.c,160 :: 		portd=0x3F;
	MOVLW      63
	MOVWF      PORTD+0
;projet_gestion_appels_infirmiers.c,161 :: 		Move_Delay() ;
	CALL       _Move_Delay+0
;projet_gestion_appels_infirmiers.c,162 :: 		portd=0x00;
	CLRF       PORTD+0
;projet_gestion_appels_infirmiers.c,163 :: 		buzzer = 0;
	BCF        PORTC+0, 4
;projet_gestion_appels_infirmiers.c,164 :: 		Lcd_Cmd(_LCD_CLEAR);
	MOVLW      1
	MOVWF      FARG_Lcd_Cmd_out_char+0
	CALL       _Lcd_Cmd+0
;projet_gestion_appels_infirmiers.c,165 :: 		Lcd_Cmd(_LCD_CURSOR_OFF);
	MOVLW      12
	MOVWF      FARG_Lcd_Cmd_out_char+0
	CALL       _Lcd_Cmd+0
;projet_gestion_appels_infirmiers.c,167 :: 		}
	GOTO       L_main17
L_main16:
;projet_gestion_appels_infirmiers.c,172 :: 		else if(portc.rc2 == 1 && portc.rc1 == 0 && portc.rc0 == 0 && portc.rc3 == 0)
	BTFSS      PORTC+0, 2
	GOTO       L_main20
	BTFSC      PORTC+0, 1
	GOTO       L_main20
	BTFSC      PORTC+0, 0
	GOTO       L_main20
	BTFSC      PORTC+0, 3
	GOTO       L_main20
L__main35:
;projet_gestion_appels_infirmiers.c,174 :: 		Lcd_Cmd(_LCD_CLEAR);
	MOVLW      1
	MOVWF      FARG_Lcd_Cmd_out_char+0
	CALL       _Lcd_Cmd+0
;projet_gestion_appels_infirmiers.c,175 :: 		Lcd_Cmd(_LCD_CURSOR_OFF);
	MOVLW      12
	MOVWF      FARG_Lcd_Cmd_out_char+0
	CALL       _Lcd_Cmd+0
;projet_gestion_appels_infirmiers.c,176 :: 		Lcd_Out(1, 4, "APPEL DE LA ");
	MOVLW      1
	MOVWF      FARG_Lcd_Out_row+0
	MOVLW      4
	MOVWF      FARG_Lcd_Out_column+0
	MOVLW      ?lstr6_projet_gestion_appels_infirmiers+0
	MOVWF      FARG_Lcd_Out_text+0
	CALL       _Lcd_Out+0
;projet_gestion_appels_infirmiers.c,177 :: 		Lcd_Out(2, 5, "CHAMBRE 3");
	MOVLW      2
	MOVWF      FARG_Lcd_Out_row+0
	MOVLW      5
	MOVWF      FARG_Lcd_Out_column+0
	MOVLW      ?lstr7_projet_gestion_appels_infirmiers+0
	MOVWF      FARG_Lcd_Out_text+0
	CALL       _Lcd_Out+0
;projet_gestion_appels_infirmiers.c,178 :: 		buzzer = 1;
	BSF        PORTC+0, 4
;projet_gestion_appels_infirmiers.c,179 :: 		portd=0x3F;
	MOVLW      63
	MOVWF      PORTD+0
;projet_gestion_appels_infirmiers.c,180 :: 		Move_Delay() ;
	CALL       _Move_Delay+0
;projet_gestion_appels_infirmiers.c,181 :: 		portd=0x00;
	CLRF       PORTD+0
;projet_gestion_appels_infirmiers.c,182 :: 		buzzer = 0;
	BCF        PORTC+0, 4
;projet_gestion_appels_infirmiers.c,183 :: 		Lcd_Cmd(_LCD_CLEAR);
	MOVLW      1
	MOVWF      FARG_Lcd_Cmd_out_char+0
	CALL       _Lcd_Cmd+0
;projet_gestion_appels_infirmiers.c,184 :: 		Lcd_Cmd(_LCD_CURSOR_OFF);
	MOVLW      12
	MOVWF      FARG_Lcd_Cmd_out_char+0
	CALL       _Lcd_Cmd+0
;projet_gestion_appels_infirmiers.c,186 :: 		}
	GOTO       L_main21
L_main20:
;projet_gestion_appels_infirmiers.c,191 :: 		else if(portc.rc3 == 1 && portc.rc1 == 0 && portc.rc2 == 0 && portc.rc0 == 0)
	BTFSS      PORTC+0, 3
	GOTO       L_main24
	BTFSC      PORTC+0, 1
	GOTO       L_main24
	BTFSC      PORTC+0, 2
	GOTO       L_main24
	BTFSC      PORTC+0, 0
	GOTO       L_main24
L__main34:
;projet_gestion_appels_infirmiers.c,193 :: 		Lcd_Cmd(_LCD_CLEAR);
	MOVLW      1
	MOVWF      FARG_Lcd_Cmd_out_char+0
	CALL       _Lcd_Cmd+0
;projet_gestion_appels_infirmiers.c,194 :: 		Lcd_Cmd(_LCD_CURSOR_OFF);
	MOVLW      12
	MOVWF      FARG_Lcd_Cmd_out_char+0
	CALL       _Lcd_Cmd+0
;projet_gestion_appels_infirmiers.c,195 :: 		Lcd_Out(1, 4, "APPEL DE LA");
	MOVLW      1
	MOVWF      FARG_Lcd_Out_row+0
	MOVLW      4
	MOVWF      FARG_Lcd_Out_column+0
	MOVLW      ?lstr8_projet_gestion_appels_infirmiers+0
	MOVWF      FARG_Lcd_Out_text+0
	CALL       _Lcd_Out+0
;projet_gestion_appels_infirmiers.c,196 :: 		Lcd_Out(2, 5, "CHAMBRE 4");
	MOVLW      2
	MOVWF      FARG_Lcd_Out_row+0
	MOVLW      5
	MOVWF      FARG_Lcd_Out_column+0
	MOVLW      ?lstr9_projet_gestion_appels_infirmiers+0
	MOVWF      FARG_Lcd_Out_text+0
	CALL       _Lcd_Out+0
;projet_gestion_appels_infirmiers.c,197 :: 		buzzer = 1;
	BSF        PORTC+0, 4
;projet_gestion_appels_infirmiers.c,198 :: 		portd=0x3F;
	MOVLW      63
	MOVWF      PORTD+0
;projet_gestion_appels_infirmiers.c,199 :: 		Move_Delay() ;
	CALL       _Move_Delay+0
;projet_gestion_appels_infirmiers.c,200 :: 		portd=0x00;
	CLRF       PORTD+0
;projet_gestion_appels_infirmiers.c,201 :: 		buzzer = 0;
	BCF        PORTC+0, 4
;projet_gestion_appels_infirmiers.c,202 :: 		Lcd_Cmd(_LCD_CLEAR);
	MOVLW      1
	MOVWF      FARG_Lcd_Cmd_out_char+0
	CALL       _Lcd_Cmd+0
;projet_gestion_appels_infirmiers.c,203 :: 		Lcd_Cmd(_LCD_CURSOR_OFF);
	MOVLW      12
	MOVWF      FARG_Lcd_Cmd_out_char+0
	CALL       _Lcd_Cmd+0
;projet_gestion_appels_infirmiers.c,205 :: 		}
	GOTO       L_main25
L_main24:
;projet_gestion_appels_infirmiers.c,209 :: 		else if(a >= 0x52 || a<=0x3E || b >= 0x52 || b <=0x3E || x >= 0x52 || x <=0x3E || y >= 0x52 || y <=0x3E || heart<=rate || heartt<=rate || hearttt<=rate || heartttt<=rate)
	MOVLW      0
	SUBWF      _a+1, 0
	BTFSS      STATUS+0, 2
	GOTO       L__main55
	MOVLW      82
	SUBWF      _a+0, 0
L__main55:
	BTFSC      STATUS+0, 0
	GOTO       L__main33
	MOVF       _a+1, 0
	SUBLW      0
	BTFSS      STATUS+0, 2
	GOTO       L__main56
	MOVF       _a+0, 0
	SUBLW      62
L__main56:
	BTFSC      STATUS+0, 0
	GOTO       L__main33
	MOVLW      0
	SUBWF      _b+1, 0
	BTFSS      STATUS+0, 2
	GOTO       L__main57
	MOVLW      82
	SUBWF      _b+0, 0
L__main57:
	BTFSC      STATUS+0, 0
	GOTO       L__main33
	MOVF       _b+1, 0
	SUBLW      0
	BTFSS      STATUS+0, 2
	GOTO       L__main58
	MOVF       _b+0, 0
	SUBLW      62
L__main58:
	BTFSC      STATUS+0, 0
	GOTO       L__main33
	MOVLW      0
	SUBWF      _x+1, 0
	BTFSS      STATUS+0, 2
	GOTO       L__main59
	MOVLW      82
	SUBWF      _x+0, 0
L__main59:
	BTFSC      STATUS+0, 0
	GOTO       L__main33
	MOVF       _x+1, 0
	SUBLW      0
	BTFSS      STATUS+0, 2
	GOTO       L__main60
	MOVF       _x+0, 0
	SUBLW      62
L__main60:
	BTFSC      STATUS+0, 0
	GOTO       L__main33
	MOVLW      0
	SUBWF      _y+1, 0
	BTFSS      STATUS+0, 2
	GOTO       L__main61
	MOVLW      82
	SUBWF      _y+0, 0
L__main61:
	BTFSC      STATUS+0, 0
	GOTO       L__main33
	MOVF       _y+1, 0
	SUBLW      0
	BTFSS      STATUS+0, 2
	GOTO       L__main62
	MOVF       _y+0, 0
	SUBLW      62
L__main62:
	BTFSC      STATUS+0, 0
	GOTO       L__main33
	MOVF       _heart+1, 0
	SUBWF      _rate+1, 0
	BTFSS      STATUS+0, 2
	GOTO       L__main63
	MOVF       _heart+0, 0
	SUBWF      _rate+0, 0
L__main63:
	BTFSC      STATUS+0, 0
	GOTO       L__main33
	MOVF       _heartt+1, 0
	SUBWF      _rate+1, 0
	BTFSS      STATUS+0, 2
	GOTO       L__main64
	MOVF       _heartt+0, 0
	SUBWF      _rate+0, 0
L__main64:
	BTFSC      STATUS+0, 0
	GOTO       L__main33
	MOVF       _hearttt+1, 0
	SUBWF      _rate+1, 0
	BTFSS      STATUS+0, 2
	GOTO       L__main65
	MOVF       _hearttt+0, 0
	SUBWF      _rate+0, 0
L__main65:
	BTFSC      STATUS+0, 0
	GOTO       L__main33
	MOVF       _heartttt+1, 0
	SUBWF      _rate+1, 0
	BTFSS      STATUS+0, 2
	GOTO       L__main66
	MOVF       _heartttt+0, 0
	SUBWF      _rate+0, 0
L__main66:
	BTFSC      STATUS+0, 0
	GOTO       L__main33
	GOTO       L_main28
L__main33:
;projet_gestion_appels_infirmiers.c,211 :: 		portb.rb6=1;
	BSF        PORTB+0, 6
;projet_gestion_appels_infirmiers.c,212 :: 		buzzer =1;
	BSF        PORTC+0, 4
;projet_gestion_appels_infirmiers.c,213 :: 		Move_Delay() ;
	CALL       _Move_Delay+0
;projet_gestion_appels_infirmiers.c,214 :: 		portb.rb6=0;
	BCF        PORTB+0, 6
;projet_gestion_appels_infirmiers.c,215 :: 		}
L_main28:
L_main25:
L_main21:
L_main17:
L_main13:
L_main9:
;projet_gestion_appels_infirmiers.c,220 :: 		if (flag == 1)
	MOVF       _flag+0, 0
	XORLW      1
	BTFSS      STATUS+0, 2
	GOTO       L_main29
;projet_gestion_appels_infirmiers.c,222 :: 		Lcd_Cmd(_LCD_CLEAR);
	MOVLW      1
	MOVWF      FARG_Lcd_Cmd_out_char+0
	CALL       _Lcd_Cmd+0
;projet_gestion_appels_infirmiers.c,223 :: 		Lcd_Cmd(_LCD_CURSOR_OFF);
	MOVLW      12
	MOVWF      FARG_Lcd_Cmd_out_char+0
	CALL       _Lcd_Cmd+0
;projet_gestion_appels_infirmiers.c,224 :: 		while(flag==1)
L_main30:
	MOVF       _flag+0, 0
	XORLW      1
	BTFSS      STATUS+0, 2
	GOTO       L_main31
;projet_gestion_appels_infirmiers.c,226 :: 		Lcd_Out(1, 4, "URGENCE!!!!");
	MOVLW      1
	MOVWF      FARG_Lcd_Out_row+0
	MOVLW      4
	MOVWF      FARG_Lcd_Out_column+0
	MOVLW      ?lstr10_projet_gestion_appels_infirmiers+0
	MOVWF      FARG_Lcd_Out_text+0
	CALL       _Lcd_Out+0
;projet_gestion_appels_infirmiers.c,227 :: 		UART1_Write(13);
	MOVLW      13
	MOVWF      FARG_UART1_Write_data_+0
	CALL       _UART1_Write+0
;projet_gestion_appels_infirmiers.c,228 :: 		UART1_Write_Text("Urgence");
	MOVLW      ?lstr11_projet_gestion_appels_infirmiers+0
	MOVWF      FARG_UART1_Write_Text_uart_text+0
	CALL       _UART1_Write_Text+0
;projet_gestion_appels_infirmiers.c,229 :: 		UART1_Write(13);
	MOVLW      13
	MOVWF      FARG_UART1_Write_data_+0
	CALL       _UART1_Write+0
;projet_gestion_appels_infirmiers.c,230 :: 		Move_Delay();
	CALL       _Move_Delay+0
;projet_gestion_appels_infirmiers.c,231 :: 		if(portb.rb0==0){
	BTFSC      PORTB+0, 0
	GOTO       L_main32
;projet_gestion_appels_infirmiers.c,232 :: 		flag=0;
	CLRF       _flag+0
;projet_gestion_appels_infirmiers.c,233 :: 		buzzer=0;
	BCF        PORTC+0, 4
;projet_gestion_appels_infirmiers.c,234 :: 		Lcd_Cmd(_LCD_CLEAR);
	MOVLW      1
	MOVWF      FARG_Lcd_Cmd_out_char+0
	CALL       _Lcd_Cmd+0
;projet_gestion_appels_infirmiers.c,235 :: 		Lcd_Cmd(_LCD_CURSOR_OFF);
	MOVLW      12
	MOVWF      FARG_Lcd_Cmd_out_char+0
	CALL       _Lcd_Cmd+0
;projet_gestion_appels_infirmiers.c,236 :: 		}
L_main32:
;projet_gestion_appels_infirmiers.c,238 :: 		}
	GOTO       L_main30
L_main31:
;projet_gestion_appels_infirmiers.c,240 :: 		}
L_main29:
;projet_gestion_appels_infirmiers.c,243 :: 		}}
	GOTO       L_main2
L_end_main:
	GOTO       $+0
; end of _main
